target datalayout = "e-m:e-p270:32:32-p271:32:32-p272:64:64-i64:64-i128:128-f80:128-n8:16:32:64-S128"
target triple = "x86_64-pc-linux-gnu"

%"struct.Luau::NotNull" = type { ptr }
%"struct.Luau::NotNull.0" = type { ptr }
%"struct.Luau::NotNull.1" = type { ptr }
%"struct.Luau::NotNull.2" = type { ptr }
%"struct.std::pair" = type { ptr, ptr }
%"struct.std::pair.13" = type { ptr, ptr }
%"struct.Luau::Unifier2" = type { %"struct.Luau::NotNull", %"struct.Luau::NotNull.0", %"struct.Luau::NotNull.1", %"struct.Luau::NotNull.2", %"struct.Luau::TypeCheckLimits", %"class.Luau::DenseHashSet", %"class.Luau::DenseHashSet.11", %"class.Luau::DenseHashMap", %"class.Luau::DenseHashMap.18", %"class.Luau::DenseHashMap.21", i32, i32, %"class.std::vector", ptr }
%"struct.Luau::TypeCheckLimits" = type { %"class.std::optional", %"class.std::optional.3", %"class.std::optional.3", %"class.std::shared_ptr" }
%"class.std::optional" = type { %"struct.std::_Optional_base" }
%"struct.std::_Optional_base" = type { %"struct.std::_Optional_payload" }
%"struct.std::_Optional_payload" = type { %"struct.std::_Optional_payload_base.base", [7 x i8] }
%"struct.std::_Optional_payload_base.base" = type <{ %"union.std::_Optional_payload_base<double>::_Storage", i8 }>
%"union.std::_Optional_payload_base<double>::_Storage" = type { double }
%"class.std::optional.3" = type { %"struct.std::_Optional_base.4" }
%"struct.std::_Optional_base.4" = type { %"struct.std::_Optional_payload.6" }
%"struct.std::_Optional_payload.6" = type { %"struct.std::_Optional_payload_base.base.8", [3 x i8] }
%"struct.std::_Optional_payload_base.base.8" = type <{ %"union.std::_Optional_payload_base<int>::_Storage", i8 }>
%"union.std::_Optional_payload_base<int>::_Storage" = type { i32 }
%"class.std::shared_ptr" = type { %"class.std::__shared_ptr" }
%"class.std::__shared_ptr" = type { ptr, %"class.std::__shared_count" }
%"class.std::__shared_count" = type { ptr }
%"class.Luau::DenseHashSet" = type { %"class.Luau::detail::DenseHashTable" }
%"class.Luau::detail::DenseHashTable" = type <{ ptr, i64, i64, %"struct.std::pair", [8 x i8] }>
%"class.Luau::DenseHashSet.11" = type { %"class.Luau::detail::DenseHashTable.12" }
%"class.Luau::detail::DenseHashTable.12" = type <{ ptr, i64, i64, %"struct.std::pair.13", [8 x i8] }>
%"class.Luau::DenseHashMap" = type { %"class.Luau::detail::DenseHashTable.16" }
%"class.Luau::detail::DenseHashTable.16" = type <{ ptr, i64, i64, ptr, [8 x i8] }>
%"class.Luau::DenseHashMap.18" = type { %"class.Luau::detail::DenseHashTable.19" }
%"class.Luau::detail::DenseHashTable.19" = type <{ ptr, i64, i64, ptr, [8 x i8] }>
%"class.Luau::DenseHashMap.21" = type { %"class.Luau::detail::DenseHashTable.22" }
%"class.Luau::detail::DenseHashTable.22" = type <{ ptr, i64, i64, ptr, [8 x i8] }>
%"class.std::vector" = type { %"struct.std::_Vector_base" }
%"struct.std::_Vector_base" = type { %"struct.std::_Vector_base<Luau::Variant<Luau::SubtypeConstraint, Luau::PackSubtypeConstraint, Luau::GeneralizationConstraint, Luau::IterableConstraint, Luau::NameConstraint, Luau::TypeAliasExpansionConstraint, Luau::FunctionCallConstraint, Luau::FunctionCheckConstraint, Luau::PrimitiveTypeConstraint, Luau::HasPropConstraint, Luau::HasIndexerConstraint, Luau::AssignPropConstraint, Luau::AssignIndexConstraint, Luau::UnpackConstraint, Luau::ReduceConstraint, Luau::ReducePackConstraint, Luau::EqualityConstraint, Luau::TableCheckConstraint>, std::allocator<Luau::Variant<Luau::SubtypeConstraint, Luau::PackSubtypeConstraint, Luau::GeneralizationConstraint, Luau::IterableConstraint, Luau::NameConstraint, Luau::TypeAliasExpansionConstraint, Luau::FunctionCallConstraint, Luau::FunctionCheckConstraint, Luau::PrimitiveTypeConstraint, Luau::HasPropConstraint, Luau::HasIndexerConstraint, Luau::AssignPropConstraint, Luau::AssignIndexConstraint, Luau::UnpackConstraint, Luau::ReduceConstraint, Luau::ReducePackConstraint, Luau::EqualityConstraint, Luau::TableCheckConstraint>>>::_Vector_impl" }
%"struct.std::_Vector_base<Luau::Variant<Luau::SubtypeConstraint, Luau::PackSubtypeConstraint, Luau::GeneralizationConstraint, Luau::IterableConstraint, Luau::NameConstraint, Luau::TypeAliasExpansionConstraint, Luau::FunctionCallConstraint, Luau::FunctionCheckConstraint, Luau::PrimitiveTypeConstraint, Luau::HasPropConstraint, Luau::HasIndexerConstraint, Luau::AssignPropConstraint, Luau::AssignIndexConstraint, Luau::UnpackConstraint, Luau::ReduceConstraint, Luau::ReducePackConstraint, Luau::EqualityConstraint, Luau::TableCheckConstraint>, std::allocator<Luau::Variant<Luau::SubtypeConstraint, Luau::PackSubtypeConstraint, Luau::GeneralizationConstraint, Luau::IterableConstraint, Luau::NameConstraint, Luau::TypeAliasExpansionConstraint, Luau::FunctionCallConstraint, Luau::FunctionCheckConstraint, Luau::PrimitiveTypeConstraint, Luau::HasPropConstraint, Luau::HasIndexerConstraint, Luau::AssignPropConstraint, Luau::AssignIndexConstraint, Luau::UnpackConstraint, Luau::ReduceConstraint, Luau::ReducePackConstraint, Luau::EqualityConstraint, Luau::TableCheckConstraint>>>::_Vector_impl" = type { %"struct.std::_Vector_base<Luau::Variant<Luau::SubtypeConstraint, Luau::PackSubtypeConstraint, Luau::GeneralizationConstraint, Luau::IterableConstraint, Luau::NameConstraint, Luau::TypeAliasExpansionConstraint, Luau::FunctionCallConstraint, Luau::FunctionCheckConstraint, Luau::PrimitiveTypeConstraint, Luau::HasPropConstraint, Luau::HasIndexerConstraint, Luau::AssignPropConstraint, Luau::AssignIndexConstraint, Luau::UnpackConstraint, Luau::ReduceConstraint, Luau::ReducePackConstraint, Luau::EqualityConstraint, Luau::TableCheckConstraint>, std::allocator<Luau::Variant<Luau::SubtypeConstraint, Luau::PackSubtypeConstraint, Luau::GeneralizationConstraint, Luau::IterableConstraint, Luau::NameConstraint, Luau::TypeAliasExpansionConstraint, Luau::FunctionCallConstraint, Luau::FunctionCheckConstraint, Luau::PrimitiveTypeConstraint, Luau::HasPropConstraint, Luau::HasIndexerConstraint, Luau::AssignPropConstraint, Luau::AssignIndexConstraint, Luau::UnpackConstraint, Luau::ReduceConstraint, Luau::ReducePackConstraint, Luau::EqualityConstraint, Luau::TableCheckConstraint>>>::_Vector_impl_data" }
%"struct.std::_Vector_base<Luau::Variant<Luau::SubtypeConstraint, Luau::PackSubtypeConstraint, Luau::GeneralizationConstraint, Luau::IterableConstraint, Luau::NameConstraint, Luau::TypeAliasExpansionConstraint, Luau::FunctionCallConstraint, Luau::FunctionCheckConstraint, Luau::PrimitiveTypeConstraint, Luau::HasPropConstraint, Luau::HasIndexerConstraint, Luau::AssignPropConstraint, Luau::AssignIndexConstraint, Luau::UnpackConstraint, Luau::ReduceConstraint, Luau::ReducePackConstraint, Luau::EqualityConstraint, Luau::TableCheckConstraint>, std::allocator<Luau::Variant<Luau::SubtypeConstraint, Luau::PackSubtypeConstraint, Luau::GeneralizationConstraint, Luau::IterableConstraint, Luau::NameConstraint, Luau::TypeAliasExpansionConstraint, Luau::FunctionCallConstraint, Luau::FunctionCheckConstraint, Luau::PrimitiveTypeConstraint, Luau::HasPropConstraint, Luau::HasIndexerConstraint, Luau::AssignPropConstraint, Luau::AssignIndexConstraint, Luau::UnpackConstraint, Luau::ReduceConstraint, Luau::ReducePackConstraint, Luau::EqualityConstraint, Luau::TableCheckConstraint>>>::_Vector_impl_data" = type { ptr, ptr, ptr }
%"struct.Luau::SimplifyResult" = type { ptr, %"class.Luau::DenseHashSet.136" }
%"class.Luau::DenseHashSet.136" = type { %"class.Luau::detail::DenseHashTable.137" }
%"class.Luau::detail::DenseHashTable.137" = type <{ ptr, i64, i64, ptr, [8 x i8] }>

; Function Attrs: mustprogress nounwind uwtable
define linkonce_odr dso_local void @_ZN4Luau6detail16ItemInterfaceSetIPKNS_4TypeEE7destroyEPS4_m(ptr noundef %0, i64 noundef %1) #4 comdat align 2 {
  %3 = alloca ptr, align 8
  %4 = alloca i64, align 8
  %5 = alloca i64, align 8
  store ptr %0, ptr %3, align 8, !tbaa !101
  store i64 %1, ptr %4, align 8, !tbaa !93
  call void @llvm.lifetime.start.p0(i64 8, ptr %5) #20
  store i64 0, ptr %5, align 8, !tbaa !93
  br label %6

6:                                                ; preds = %12, %2
  %7 = load i64, ptr %5, align 8, !tbaa !93
  %8 = load i64, ptr %4, align 8, !tbaa !93
  %9 = icmp ult i64 %7, %8
  br i1 %9, label %11, label %10

10:                                               ; preds = %6
  call void @llvm.lifetime.end.p0(i64 8, ptr %5) #20
  br label %15

11:                                               ; preds = %6
  br label %12

12:                                               ; preds = %11
  %13 = load i64, ptr %5, align 8, !tbaa !93
  %14 = add i64 %13, 1
  store i64 %14, ptr %5, align 8, !tbaa !93
  br label %6, !llvm.loop !504

15:                                               ; preds = %10
  ret void
}

; Function Attrs: noinline noreturn nounwind uwtable
define linkonce_odr hidden void @__clang_call_terminate(ptr noundef %0) #12 comdat {
  %2 = call ptr @__cxa_begin_catch(ptr %0) #20
  call void @_ZSt9terminatev() #21
  unreachable
}

; Function Attrs: mustprogress uwtable
define linkonce_odr dso_local void @_ZN4Luau6detail14DenseHashTableIPKNS_4TypeES4_S4_NS0_16ItemInterfaceSetIS4_EENS_16DenseHashPointerESt8equal_toIS4_EE7destroyEv(ptr noundef nonnull align 8 dereferenceable(34) %0) #2 comdat align 2 {
  %2 = alloca ptr, align 8
  store ptr %0, ptr %2, align 8, !tbaa !500
  %3 = load ptr, ptr %2, align 8
  %4 = getelementptr inbounds nuw %"class.Luau::detail::DenseHashTable.137", ptr %3, i32 0, i32 0
  %5 = load ptr, ptr %4, align 8, !tbaa !502
  %6 = getelementptr inbounds nuw %"class.Luau::detail::DenseHashTable.137", ptr %3, i32 0, i32 1
  %7 = load i64, ptr %6, align 8, !tbaa !503
  call void @_ZN4Luau6detail16ItemInterfaceSetIPKNS_4TypeEE7destroyEPS4_m(ptr noundef %5, i64 noundef %7)
  %8 = getelementptr inbounds nuw %"class.Luau::detail::DenseHashTable.137", ptr %3, i32 0, i32 0
  %9 = load ptr, ptr %8, align 8, !tbaa !502
  call void @_ZdlPv(ptr noundef %9) #20
  %10 = getelementptr inbounds nuw %"class.Luau::detail::DenseHashTable.137", ptr %3, i32 0, i32 0
  store ptr null, ptr %10, align 8, !tbaa !502
  %11 = getelementptr inbounds nuw %"class.Luau::detail::DenseHashTable.137", ptr %3, i32 0, i32 1
  store i64 0, ptr %11, align 8, !tbaa !503
  ret void
}

; Function Attrs: mustprogress nounwind uwtable
define linkonce_odr dso_local void @_ZN4Luau6detail14DenseHashTableIPKNS_4TypeES4_S4_NS0_16ItemInterfaceSetIS4_EENS_16DenseHashPointerESt8equal_toIS4_EED2Ev(ptr noundef nonnull align 8 dereferenceable(34) %0) unnamed_addr #4 comdat align 2 personality ptr @__gxx_personality_v0 {
  %2 = alloca ptr, align 8
  store ptr %0, ptr %2, align 8, !tbaa !500
  %3 = load ptr, ptr %2, align 8
  %4 = getelementptr inbounds nuw %"class.Luau::detail::DenseHashTable.137", ptr %3, i32 0, i32 0
  %5 = load ptr, ptr %4, align 8, !tbaa !502
  %6 = icmp ne ptr %5, null
  br i1 %6, label %7, label %9

7:                                                ; preds = %1
  invoke void @_ZN4Luau6detail14DenseHashTableIPKNS_4TypeES4_S4_NS0_16ItemInterfaceSetIS4_EENS_16DenseHashPointerESt8equal_toIS4_EE7destroyEv(ptr noundef nonnull align 8 dereferenceable(34) %3)
          to label %8 unwind label %10

8:                                                ; preds = %7
  br label %9

9:                                                ; preds = %8, %1
  ret void

10:                                               ; preds = %7
  %11 = landingpad { ptr, i32 }
          catch ptr null
  %12 = extractvalue { ptr, i32 } %11, 0
  call void @__clang_call_terminate(ptr %12) #21
  unreachable
}

; Function Attrs: inlinehint mustprogress nounwind uwtable
define linkonce_odr dso_local void @_ZN4Luau12DenseHashSetIPKNS_4TypeENS_16DenseHashPointerESt8equal_toIS3_EED2Ev(ptr noundef nonnull align 8 dereferenceable(40) %0) unnamed_addr #6 comdat align 2 {
  %2 = alloca ptr, align 8
  store ptr %0, ptr %2, align 8, !tbaa !334
  %3 = load ptr, ptr %2, align 8
  %4 = getelementptr inbounds nuw %"class.Luau::DenseHashSet.136", ptr %3, i32 0, i32 0
  call void @_ZN4Luau6detail14DenseHashTableIPKNS_4TypeES4_S4_NS0_16ItemInterfaceSetIS4_EENS_16DenseHashPointerESt8equal_toIS4_EED2Ev(ptr noundef nonnull align 8 dereferenceable(34) %4) #20
  ret void
}

; Function Attrs: inlinehint mustprogress nounwind uwtable
define linkonce_odr dso_local void @_ZN4Luau14SimplifyResultD2Ev(ptr noundef nonnull align 8 dereferenceable(48) %0) unnamed_addr #6 comdat align 2 {
  %2 = alloca ptr, align 8
  store ptr %0, ptr %2, align 8, !tbaa !332
  %3 = load ptr, ptr %2, align 8
  %4 = getelementptr inbounds nuw %"struct.Luau::SimplifyResult", ptr %3, i32 0, i32 1
  call void @_ZN4Luau12DenseHashSetIPKNS_4TypeENS_16DenseHashPointerESt8equal_toIS3_EED2Ev(ptr noundef nonnull align 8 dereferenceable(40) %4) #20
  ret void
}

; Function Attrs: mustprogress uwtable
define dso_local noundef ptr @_ZN4Luau8Unifier27mkUnionEPKNS_4TypeES3_(ptr noundef nonnull align 8 dereferenceable(336) %0, ptr noundef %1, ptr noundef %2) #2 align 2 {
  %4 = alloca ptr, align 8
  %5 = alloca ptr, align 8
  %6 = alloca ptr, align 8
  %7 = alloca %"struct.Luau::SimplifyResult", align 8
  %8 = alloca %"struct.Luau::NotNull.0", align 8
  %9 = alloca %"struct.Luau::NotNull", align 8
  store ptr %0, ptr %4, align 8, !tbaa !8
  store ptr %1, ptr %5, align 8, !tbaa !25
  store ptr %2, ptr %6, align 8, !tbaa !25
  %10 = load ptr, ptr %4, align 8
  %11 = load ptr, ptr %5, align 8, !tbaa !25
  %12 = call noundef ptr @_ZN4Luau6followEPKNS_4TypeE(ptr noundef %11)
  store ptr %12, ptr %5, align 8, !tbaa !25
  %13 = load ptr, ptr %6, align 8, !tbaa !25
  %14 = call noundef ptr @_ZN4Luau6followEPKNS_4TypeE(ptr noundef %13)
  store ptr %14, ptr %6, align 8, !tbaa !25
  call void @llvm.lifetime.start.p0(i64 48, ptr %7) #20
  %15 = getelementptr inbounds nuw %"struct.Luau::Unifier2", ptr %10, i32 0, i32 1
  call void @llvm.memcpy.p0.p0.i64(ptr align 8 %8, ptr align 8 %15, i64 8, i1 false), !tbaa.struct !14
  %16 = getelementptr inbounds nuw %"struct.Luau::Unifier2", ptr %10, i32 0, i32 0
  call void @llvm.memcpy.p0.p0.i64(ptr align 8 %9, ptr align 8 %16, i64 8, i1 false), !tbaa.struct !11
  %17 = load ptr, ptr %5, align 8, !tbaa !25
  %18 = load ptr, ptr %6, align 8, !tbaa !25
  %19 = getelementptr inbounds nuw %"struct.Luau::NotNull.0", ptr %8, i32 0, i32 0
  %20 = load ptr, ptr %19, align 8
  %21 = getelementptr inbounds nuw %"struct.Luau::NotNull", ptr %9, i32 0, i32 0
  %22 = load ptr, ptr %21, align 8
  call void @_ZN4Luau13simplifyUnionENS_7NotNullINS_12BuiltinTypesEEENS0_INS_9TypeArenaEEEPKNS_4TypeES7_(ptr dead_on_unwind writable sret(%"struct.Luau::SimplifyResult") align 8 %7, ptr %20, ptr %22, ptr noundef %17, ptr noundef %18)
  %23 = getelementptr inbounds nuw %"struct.Luau::SimplifyResult", ptr %7, i32 0, i32 0
  %24 = load ptr, ptr %23, align 8, !tbaa !203
  call void @_ZN4Luau14SimplifyResultD2Ev(ptr noundef nonnull align 8 dereferenceable(48) %7) #20
  call void @llvm.lifetime.end.p0(i64 48, ptr %7) #20
  ret ptr %24
}