; Function Attrs: mustprogress uwtable
define dso_local noundef ptr @_ZN4Luau8Unifier27mkUnionEPKNS_4TypeES3_(ptr noundef nonnull readonly align 8 captures(none) dereferenceable(336) %0, ptr noundef %1, ptr noundef %2) local_unnamed_addr #4 align 2 personality ptr @__gxx_personality_v0 {
  %4 = alloca %"struct.Luau::SimplifyResult", align 8
  %5 = tail call noundef ptr @_ZN4Luau6followEPKNS_4TypeE(ptr noundef %1)
  %6 = tail call noundef ptr @_ZN4Luau6followEPKNS_4TypeE(ptr noundef %2)
  call void @llvm.lifetime.start.p0(i64 48, ptr nonnull %4) #22
  %7 = getelementptr inbounds nuw i8, ptr %0, i64 8
  %.sroa.01.0.copyload = load ptr, ptr %7, align 8, !tbaa !11
  %.sroa.0.0.copyload = load ptr, ptr %0, align 8, !tbaa !8
  call void @_ZN4Luau13simplifyUnionENS_7NotNullINS_12BuiltinTypesEEENS0_INS_9TypeArenaEEEPKNS_4TypeES7_(ptr dead_on_unwind nonnull writable sret(%"struct.Luau::SimplifyResult") align 8 %4, ptr %.sroa.01.0.copyload, ptr %.sroa.0.0.copyload, ptr noundef %5, ptr noundef %6)
  %8 = load ptr, ptr %4, align 8, !tbaa !106
  %9 = getelementptr inbounds nuw i8, ptr %4, i64 8
  %10 = load ptr, ptr %9, align 8, !tbaa !111
  %.not.i.i.i = icmp eq ptr %10, null
  br i1 %.not.i.i.i, label %_ZN4Luau14SimplifyResultD2Ev.exit, label %11

11:                                               ; preds = %3
  call void @_ZdlPv(ptr noundef nonnull %10) #22
  br label %_ZN4Luau14SimplifyResultD2Ev.exit

_ZN4Luau14SimplifyResultD2Ev.exit:                ; preds = %3, %11
  call void @llvm.lifetime.end.p0(i64 48, ptr nonnull %4) #22
  ret ptr %8
}